target datalayout = "e-m:e-p270:32:32-p271:32:32-p272:64:64-i64:64-i128:128-f80:128-n8:16:32:64-S128"
target triple = "x86_64-pc-linux-gnu"

%struct.PJconsts = type { ptr, ptr, ptr, ptr, ptr, ptr, ptr, ptr, ptr, ptr, ptr, ptr, i32, ptr, ptr, ptr, ptr, ptr, ptr, ptr, ptr, double, double, double, double, double, double, double, double, double, double, double, double, double, double, double, double, double, double, double, double, double, double, i32, i32, i32, i32, i32, i32, i32, i32, i32, i32, i32, ptr, ptr, ptr, ptr, ptr, ptr, double, double, double, double, double, double, double, double, double, double, double, i32, [7 x double], i32, ptr, ptr, double, double, i32, [4 x i8], %"class.std::shared_ptr", i8, double, i8, %"class.std::__cxx11::basic_string", %"class.std::__cxx11::basic_string", %"class.std::__cxx11::basic_string", i8, %"class.std::vector", i32, %"class.std::vector.3", i32, i8, i8, i8, ptr }
%"class.std::shared_ptr" = type { %"class.std::__shared_ptr" }
%"class.std::__shared_ptr" = type { ptr, %"class.std::__shared_count" }
%"class.std::__shared_count" = type { ptr }
%"class.std::__cxx11::basic_string" = type { %"struct.std::__cxx11::basic_string<char>::_Alloc_hider", i64, %union.anon }
%"struct.std::__cxx11::basic_string<char>::_Alloc_hider" = type { ptr }
%union.anon = type { i64, [8 x i8] }
%"class.std::vector" = type { %"struct.std::_Vector_base" }
%"struct.std::_Vector_base" = type { %"struct.std::_Vector_base<osgeo::proj::operation::GridDescription, std::allocator<osgeo::proj::operation::GridDescription>>::_Vector_impl" }
%"struct.std::_Vector_base<osgeo::proj::operation::GridDescription, std::allocator<osgeo::proj::operation::GridDescription>>::_Vector_impl" = type { %"struct.std::_Vector_base<osgeo::proj::operation::GridDescription, std::allocator<osgeo::proj::operation::GridDescription>>::_Vector_impl_data" }
%"struct.std::_Vector_base<osgeo::proj::operation::GridDescription, std::allocator<osgeo::proj::operation::GridDescription>>::_Vector_impl_data" = type { ptr, ptr, ptr }
%"class.std::vector.3" = type { %"struct.std::_Vector_base.4" }
%"struct.std::_Vector_base.4" = type { %"struct.std::_Vector_base<PJCoordOperation, std::allocator<PJCoordOperation>>::_Vector_impl" }
%"struct.std::_Vector_base<PJCoordOperation, std::allocator<PJCoordOperation>>::_Vector_impl" = type { %"struct.std::_Vector_base<PJCoordOperation, std::allocator<PJCoordOperation>>::_Vector_impl_data" }
%"struct.std::_Vector_base<PJCoordOperation, std::allocator<PJCoordOperation>>::_Vector_impl_data" = type { ptr, ptr, ptr }
%"struct.(anonymous namespace)::pj_stere" = type { double, double, double, double, i32 }

; Function Attrs: mustprogress nounwind uwtable
define internal noundef double @_ZL5ssfn_ddd(double noundef %0, double noundef %1, double noundef %2) #6 {
  %4 = alloca double, align 8
  %5 = alloca double, align 8
  %6 = alloca double, align 8
  store double %0, ptr %4, align 8, !tbaa !50
  store double %1, ptr %5, align 8, !tbaa !50
  store double %2, ptr %6, align 8, !tbaa !50
  %7 = load double, ptr %6, align 8, !tbaa !50
  %8 = load double, ptr %5, align 8, !tbaa !50
  %9 = fmul double %8, %7
  store double %9, ptr %5, align 8, !tbaa !50
  %10 = load double, ptr %4, align 8, !tbaa !50
  %11 = fadd double 0x3FF921FB54442D18, %10
  %12 = fmul double 5.000000e-01, %11
  %13 = call double @tan(double noundef %12) #9, !tbaa !55
  %14 = load double, ptr %5, align 8, !tbaa !50
  %15 = fsub double 1.000000e+00, %14
  %16 = load double, ptr %5, align 8, !tbaa !50
  %17 = fadd double 1.000000e+00, %16
  %18 = fdiv double %15, %17
  %19 = load double, ptr %6, align 8, !tbaa !50
  %20 = fmul double 5.000000e-01, %19
  %21 = call double @pow(double noundef %18, double noundef %20) #9, !tbaa !55
  %22 = fmul double %13, %21
  ret double %22
}

; Function Attrs: mustprogress uwtable
define internal noundef ptr @_ZL11stere_setupP8PJconsts(ptr noundef %0) #0 {
  %2 = alloca ptr, align 8
  %3 = alloca double, align 8
  %4 = alloca ptr, align 8
  %5 = alloca double, align 8
  store ptr %0, ptr %2, align 8, !tbaa !3
  call void @llvm.lifetime.start.p0(i64 8, ptr %3) #9
  call void @llvm.lifetime.start.p0(i64 8, ptr %4) #9
  %6 = load ptr, ptr %2, align 8, !tbaa !3
  %7 = getelementptr inbounds nuw %struct.PJconsts, ptr %6, i32 0, i32 11
  %8 = load ptr, ptr %7, align 8, !tbaa !43
  store ptr %8, ptr %4, align 8, !tbaa !41
  %9 = load ptr, ptr %2, align 8, !tbaa !3
  %10 = getelementptr inbounds nuw %struct.PJconsts, ptr %9, i32 0, i32 61
  %11 = load double, ptr %10, align 8, !tbaa !49
  %12 = call double @llvm.fabs.f64(double %11)
  store double %12, ptr %3, align 8, !tbaa !50
  %13 = fsub double %12, 0x3FF921FB54442D18
  %14 = call double @llvm.fabs.f64(double %13)
  %15 = fcmp olt double %14, 1.000000e-10
  br i1 %15, label %16, label %24

16:                                               ; preds = %1
  %17 = load ptr, ptr %2, align 8, !tbaa !3
  %18 = getelementptr inbounds nuw %struct.PJconsts, ptr %17, i32 0, i32 61
  %19 = load double, ptr %18, align 8, !tbaa !49
  %20 = fcmp olt double %19, 0.000000e+00
  %21 = select i1 %20, i32 0, i32 1
  %22 = load ptr, ptr %4, align 8, !tbaa !41
  %23 = getelementptr inbounds nuw %"struct.(anonymous namespace)::pj_stere", ptr %22, i32 0, i32 4
  store i32 %21, ptr %23, align 8, !tbaa !51
  br label %30

24:                                               ; preds = %1
  %25 = load double, ptr %3, align 8, !tbaa !50
  %26 = fcmp ogt double %25, 1.000000e-10
  %27 = select i1 %26, i32 2, i32 3
  %28 = load ptr, ptr %4, align 8, !tbaa !41
  %29 = getelementptr inbounds nuw %"struct.(anonymous namespace)::pj_stere", ptr %28, i32 0, i32 4
  store i32 %27, ptr %29, align 8, !tbaa !51
  br label %30

30:                                               ; preds = %24, %16
  %31 = load ptr, ptr %4, align 8, !tbaa !41
  %32 = getelementptr inbounds nuw %"struct.(anonymous namespace)::pj_stere", ptr %31, i32 0, i32 0
  %33 = load double, ptr %32, align 8, !tbaa !47
  %34 = call double @llvm.fabs.f64(double %33)
  %35 = load ptr, ptr %4, align 8, !tbaa !41
  %36 = getelementptr inbounds nuw %"struct.(anonymous namespace)::pj_stere", ptr %35, i32 0, i32 0
  store double %34, ptr %36, align 8, !tbaa !47
  %37 = load ptr, ptr %2, align 8, !tbaa !3
  %38 = getelementptr inbounds nuw %struct.PJconsts, ptr %37, i32 0, i32 27
  %39 = load double, ptr %38, align 8, !tbaa !52
  %40 = fcmp une double %39, 0.000000e+00
  br i1 %40, label %41, label %165

41:                                               ; preds = %30
  call void @llvm.lifetime.start.p0(i64 8, ptr %5) #9
  %42 = load ptr, ptr %4, align 8, !tbaa !41
  %43 = getelementptr inbounds nuw %"struct.(anonymous namespace)::pj_stere", ptr %42, i32 0, i32 4
  %44 = load i32, ptr %43, align 8, !tbaa !51
  switch i32 %44, label %160 [
    i32 1, label %45
    i32 0, label %45
    i32 3, label %115
    i32 2, label %115
  ]

45:                                               ; preds = %41, %41
  %46 = load ptr, ptr %4, align 8, !tbaa !41
  %47 = getelementptr inbounds nuw %"struct.(anonymous namespace)::pj_stere", ptr %46, i32 0, i32 0
  %48 = load double, ptr %47, align 8, !tbaa !47
  %49 = fsub double %48, 0x3FF921FB54442D18
  %50 = call double @llvm.fabs.f64(double %49)
  %51 = fcmp olt double %50, 1.000000e-10
  br i1 %51, label %52, label %80

52:                                               ; preds = %45
  %53 = load ptr, ptr %2, align 8, !tbaa !3
  %54 = getelementptr inbounds nuw %struct.PJconsts, ptr %53, i32 0, i32 66
  %55 = load double, ptr %54, align 8, !tbaa !53
  %56 = fmul double 2.000000e+00, %55
  %57 = load ptr, ptr %2, align 8, !tbaa !3
  %58 = getelementptr inbounds nuw %struct.PJconsts, ptr %57, i32 0, i32 26
  %59 = load double, ptr %58, align 8, !tbaa !54
  %60 = fadd double 1.000000e+00, %59
  %61 = load ptr, ptr %2, align 8, !tbaa !3
  %62 = getelementptr inbounds nuw %struct.PJconsts, ptr %61, i32 0, i32 26
  %63 = load double, ptr %62, align 8, !tbaa !54
  %64 = fadd double 1.000000e+00, %63
  %65 = call double @pow(double noundef %60, double noundef %64) #9, !tbaa !55
  %66 = load ptr, ptr %2, align 8, !tbaa !3
  %67 = getelementptr inbounds nuw %struct.PJconsts, ptr %66, i32 0, i32 26
  %68 = load double, ptr %67, align 8, !tbaa !54
  %69 = fsub double 1.000000e+00, %68
  %70 = load ptr, ptr %2, align 8, !tbaa !3
  %71 = getelementptr inbounds nuw %struct.PJconsts, ptr %70, i32 0, i32 26
  %72 = load double, ptr %71, align 8, !tbaa !54
  %73 = fsub double 1.000000e+00, %72
  %74 = call double @pow(double noundef %69, double noundef %73) #9, !tbaa !55
  %75 = fmul double %65, %74
  %76 = call double @sqrt(double noundef %75) #9, !tbaa !55
  %77 = fdiv double %56, %76
  %78 = load ptr, ptr %4, align 8, !tbaa !41
  %79 = getelementptr inbounds nuw %"struct.(anonymous namespace)::pj_stere", ptr %78, i32 0, i32 3
  store double %77, ptr %79, align 8, !tbaa !56
  br label %114

80:                                               ; preds = %45
  %81 = load ptr, ptr %4, align 8, !tbaa !41
  %82 = getelementptr inbounds nuw %"struct.(anonymous namespace)::pj_stere", ptr %81, i32 0, i32 0
  %83 = load double, ptr %82, align 8, !tbaa !47
  %84 = call double @sin(double noundef %83) #9, !tbaa !55
  store double %84, ptr %3, align 8, !tbaa !50
  %85 = load ptr, ptr %4, align 8, !tbaa !41
  %86 = getelementptr inbounds nuw %"struct.(anonymous namespace)::pj_stere", ptr %85, i32 0, i32 0
  %87 = load double, ptr %86, align 8, !tbaa !47
  %88 = call double @cos(double noundef %87) #9, !tbaa !55
  %89 = load ptr, ptr %4, align 8, !tbaa !41
  %90 = getelementptr inbounds nuw %"struct.(anonymous namespace)::pj_stere", ptr %89, i32 0, i32 0
  %91 = load double, ptr %90, align 8, !tbaa !47
  %92 = load double, ptr %3, align 8, !tbaa !50
  %93 = load ptr, ptr %2, align 8, !tbaa !3
  %94 = getelementptr inbounds nuw %struct.PJconsts, ptr %93, i32 0, i32 26
  %95 = load double, ptr %94, align 8, !tbaa !54
  %96 = call noundef double @_Z7pj_tsfnddd(double noundef %91, double noundef %92, double noundef %95)
  %97 = fdiv double %88, %96
  %98 = load ptr, ptr %4, align 8, !tbaa !41
  %99 = getelementptr inbounds nuw %"struct.(anonymous namespace)::pj_stere", ptr %98, i32 0, i32 3
  store double %97, ptr %99, align 8, !tbaa !56
  %100 = load ptr, ptr %2, align 8, !tbaa !3
  %101 = getelementptr inbounds nuw %struct.PJconsts, ptr %100, i32 0, i32 26
  %102 = load double, ptr %101, align 8, !tbaa !54
  %103 = load double, ptr %3, align 8, !tbaa !50
  %104 = fmul double %103, %102
  store double %104, ptr %3, align 8, !tbaa !50
  %105 = load double, ptr %3, align 8, !tbaa !50
  %106 = load double, ptr %3, align 8, !tbaa !50
  %107 = fneg double %105
  %108 = call double @llvm.fmuladd.f64(double %107, double %106, double 1.000000e+00)
  %109 = call double @sqrt(double noundef %108) #9, !tbaa !55
  %110 = load ptr, ptr %4, align 8, !tbaa !41
  %111 = getelementptr inbounds nuw %"struct.(anonymous namespace)::pj_stere", ptr %110, i32 0, i32 3
  %112 = load double, ptr %111, align 8, !tbaa !56
  %113 = fdiv double %112, %109
  store double %113, ptr %111, align 8, !tbaa !56
  br label %114

114:                                              ; preds = %80, %52
  br label %160

115:                                              ; preds = %41, %41
  %116 = load ptr, ptr %2, align 8, !tbaa !3
  %117 = getelementptr inbounds nuw %struct.PJconsts, ptr %116, i32 0, i32 61
  %118 = load double, ptr %117, align 8, !tbaa !49
  %119 = call double @sin(double noundef %118) #9, !tbaa !55
  store double %119, ptr %3, align 8, !tbaa !50
  %120 = load ptr, ptr %2, align 8, !tbaa !3
  %121 = getelementptr inbounds nuw %struct.PJconsts, ptr %120, i32 0, i32 61
  %122 = load double, ptr %121, align 8, !tbaa !49
  %123 = load double, ptr %3, align 8, !tbaa !50
  %124 = load ptr, ptr %2, align 8, !tbaa !3
  %125 = getelementptr inbounds nuw %struct.PJconsts, ptr %124, i32 0, i32 26
  %126 = load double, ptr %125, align 8, !tbaa !54
  %127 = call noundef double @_ZL5ssfn_ddd(double noundef %122, double noundef %123, double noundef %126)
  %128 = call double @atan(double noundef %127) #9, !tbaa !55
  %129 = call double @llvm.fmuladd.f64(double 2.000000e+00, double %128, double 0xBFF921FB54442D18)
  store double %129, ptr %5, align 8, !tbaa !50
  %130 = load ptr, ptr %2, align 8, !tbaa !3
  %131 = getelementptr inbounds nuw %struct.PJconsts, ptr %130, i32 0, i32 26
  %132 = load double, ptr %131, align 8, !tbaa !54
  %133 = load double, ptr %3, align 8, !tbaa !50
  %134 = fmul double %133, %132
  store double %134, ptr %3, align 8, !tbaa !50
  %135 = load ptr, ptr %2, align 8, !tbaa !3
  %136 = getelementptr inbounds nuw %struct.PJconsts, ptr %135, i32 0, i32 66
  %137 = load double, ptr %136, align 8, !tbaa !53
  %138 = fmul double 2.000000e+00, %137
  %139 = load ptr, ptr %2, align 8, !tbaa !3
  %140 = getelementptr inbounds nuw %struct.PJconsts, ptr %139, i32 0, i32 61
  %141 = load double, ptr %140, align 8, !tbaa !49
  %142 = call double @cos(double noundef %141) #9, !tbaa !55
  %143 = fmul double %138, %142
  %144 = load double, ptr %3, align 8, !tbaa !50
  %145 = load double, ptr %3, align 8, !tbaa !50
  %146 = fneg double %144
  %147 = call double @llvm.fmuladd.f64(double %146, double %145, double 1.000000e+00)
  %148 = call double @sqrt(double noundef %147) #9, !tbaa !55
  %149 = fdiv double %143, %148
  %150 = load ptr, ptr %4, align 8, !tbaa !41
  %151 = getelementptr inbounds nuw %"struct.(anonymous namespace)::pj_stere", ptr %150, i32 0, i32 3
  store double %149, ptr %151, align 8, !tbaa !56
  %152 = load double, ptr %5, align 8, !tbaa !50
  %153 = call double @sin(double noundef %152) #9, !tbaa !55
  %154 = load ptr, ptr %4, align 8, !tbaa !41
  %155 = getelementptr inbounds nuw %"struct.(anonymous namespace)::pj_stere", ptr %154, i32 0, i32 1
  store double %153, ptr %155, align 8, !tbaa !57
  %156 = load double, ptr %5, align 8, !tbaa !50
  %157 = call double @cos(double noundef %156) #9, !tbaa !55
  %158 = load ptr, ptr %4, align 8, !tbaa !41
  %159 = getelementptr inbounds nuw %"struct.(anonymous namespace)::pj_stere", ptr %158, i32 0, i32 2
  store double %157, ptr %159, align 8, !tbaa !58
  br label %160

160:                                              ; preds = %41, %115, %114
  %161 = load ptr, ptr %2, align 8, !tbaa !3
  %162 = getelementptr inbounds nuw %struct.PJconsts, ptr %161, i32 0, i32 14
  store ptr @_ZL15stere_e_inverse5PJ_XYP8PJconsts, ptr %162, align 8, !tbaa !59
  %163 = load ptr, ptr %2, align 8, !tbaa !3
  %164 = getelementptr inbounds nuw %struct.PJconsts, ptr %163, i32 0, i32 13
  store ptr @_ZL15stere_e_forward5PJ_LPP8PJconsts, ptr %164, align 8, !tbaa !60
  call void @llvm.lifetime.end.p0(i64 8, ptr %5) #9
  br label %225

165:                                              ; preds = %30
  %166 = load ptr, ptr %4, align 8, !tbaa !41
  %167 = getelementptr inbounds nuw %"struct.(anonymous namespace)::pj_stere", ptr %166, i32 0, i32 4
  %168 = load i32, ptr %167, align 8, !tbaa !51
  switch i32 %168, label %220 [
    i32 2, label %169
    i32 3, label %186
    i32 0, label %193
    i32 1, label %193
  ]

169:                                              ; preds = %165
  %170 = load ptr, ptr %2, align 8, !tbaa !3
  %171 = getelementptr inbounds nuw %struct.PJconsts, ptr %170, i32 0, i32 61
  %172 = load double, ptr %171, align 8, !tbaa !49
  %173 = call double @sin(double noundef %172) #9, !tbaa !55
  %174 = load ptr, ptr %2, align 8, !tbaa !3
  %175 = getelementptr inbounds nuw %struct.PJconsts, ptr %174, i32 0, i32 11
  %176 = load ptr, ptr %175, align 8, !tbaa !43
  %177 = getelementptr inbounds nuw %"struct.(anonymous namespace)::pj_stere", ptr %176, i32 0, i32 1
  store double %173, ptr %177, align 8, !tbaa !57
  %178 = load ptr, ptr %2, align 8, !tbaa !3
  %179 = getelementptr inbounds nuw %struct.PJconsts, ptr %178, i32 0, i32 61
  %180 = load double, ptr %179, align 8, !tbaa !49
  %181 = call double @cos(double noundef %180) #9, !tbaa !55
  %182 = load ptr, ptr %2, align 8, !tbaa !3
  %183 = getelementptr inbounds nuw %struct.PJconsts, ptr %182, i32 0, i32 11
  %184 = load ptr, ptr %183, align 8, !tbaa !43
  %185 = getelementptr inbounds nuw %"struct.(anonymous namespace)::pj_stere", ptr %184, i32 0, i32 2
  store double %181, ptr %185, align 8, !tbaa !58
  br label %186

186:                                              ; preds = %165, %169
  %187 = load ptr, ptr %2, align 8, !tbaa !3
  %188 = getelementptr inbounds nuw %struct.PJconsts, ptr %187, i32 0, i32 66
  %189 = load double, ptr %188, align 8, !tbaa !53
  %190 = fmul double 2.000000e+00, %189
  %191 = load ptr, ptr %4, align 8, !tbaa !41
  %192 = getelementptr inbounds nuw %"struct.(anonymous namespace)::pj_stere", ptr %191, i32 0, i32 3
  store double %190, ptr %192, align 8, !tbaa !56
  br label %220

193:                                              ; preds = %165, %165
  %194 = load ptr, ptr %4, align 8, !tbaa !41
  %195 = getelementptr inbounds nuw %"struct.(anonymous namespace)::pj_stere", ptr %194, i32 0, i32 0
  %196 = load double, ptr %195, align 8, !tbaa !47
  %197 = fsub double %196, 0x3FF921FB54442D18
  %198 = call double @llvm.fabs.f64(double %197)
  %199 = fcmp oge double %198, 1.000000e-10
  br i1 %199, label %200, label %211

200:                                              ; preds = %193
  %201 = load ptr, ptr %4, align 8, !tbaa !41
  %202 = getelementptr inbounds nuw %"struct.(anonymous namespace)::pj_stere", ptr %201, i32 0, i32 0
  %203 = load double, ptr %202, align 8, !tbaa !47
  %204 = call double @cos(double noundef %203) #9, !tbaa !55
  %205 = load ptr, ptr %4, align 8, !tbaa !41
  %206 = getelementptr inbounds nuw %"struct.(anonymous namespace)::pj_stere", ptr %205, i32 0, i32 0
  %207 = load double, ptr %206, align 8, !tbaa !47
  %208 = call double @llvm.fmuladd.f64(double -5.000000e-01, double %207, double 0x3FE921FB54442D18)
  %209 = call double @tan(double noundef %208) #9, !tbaa !55
  %210 = fdiv double %204, %209
  br label %216

211:                                              ; preds = %193
  %212 = load ptr, ptr %2, align 8, !tbaa !3
  %213 = getelementptr inbounds nuw %struct.PJconsts, ptr %212, i32 0, i32 66
  %214 = load double, ptr %213, align 8, !tbaa !53
  %215 = fmul double 2.000000e+00, %214
  br label %216

216:                                              ; preds = %211, %200
  %217 = phi double [ %210, %200 ], [ %215, %211 ]
  %218 = load ptr, ptr %4, align 8, !tbaa !41
  %219 = getelementptr inbounds nuw %"struct.(anonymous namespace)::pj_stere", ptr %218, i32 0, i32 3
  store double %217, ptr %219, align 8, !tbaa !56
  br label %220

220:                                              ; preds = %165, %216, %186
  %221 = load ptr, ptr %2, align 8, !tbaa !3
  %222 = getelementptr inbounds nuw %struct.PJconsts, ptr %221, i32 0, i32 14
  store ptr @_ZL15stere_s_inverse5PJ_XYP8PJconsts, ptr %222, align 8, !tbaa !59
  %223 = load ptr, ptr %2, align 8, !tbaa !3
  %224 = getelementptr inbounds nuw %struct.PJconsts, ptr %223, i32 0, i32 13
  store ptr @_ZL15stere_s_forward5PJ_LPP8PJconsts, ptr %224, align 8, !tbaa !60
  br label %225

225:                                              ; preds = %220, %160
  %226 = load ptr, ptr %2, align 8, !tbaa !3
  call void @llvm.lifetime.end.p0(i64 8, ptr %4) #9
  call void @llvm.lifetime.end.p0(i64 8, ptr %3) #9
  ret ptr %226
}