; Function Attrs: mustprogress uwtable
define internal fastcc noundef ptr @_ZL11stere_setupP8PJconsts(ptr noundef returned %0) unnamed_addr #0 {
  %2 = getelementptr inbounds nuw i8, ptr %0, i64 88
  %3 = load ptr, ptr %2, align 8, !tbaa !3
  %4 = getelementptr inbounds nuw i8, ptr %0, i64 448
  %5 = load double, ptr %4, align 8, !tbaa !45
  %6 = tail call double @llvm.fabs.f64(double %5)
  %7 = fadd double %6, 0xBFF921FB54442D18
  %8 = tail call double @llvm.fabs.f64(double %7)
  %9 = fcmp olt double %8, 1.000000e-10
  %10 = fcmp uge double %5, 0.000000e+00
  %11 = zext i1 %10 to i32
  %12 = fcmp ogt double %6, 1.000000e-10
  %13 = select i1 %12, i32 2, i32 3
  %14 = select i1 %9, i32 %11, i32 %13
  %15 = getelementptr inbounds nuw i8, ptr %3, i64 32
  store i32 %14, ptr %15, align 8, !tbaa !46
  %16 = load double, ptr %3, align 8, !tbaa !38
  %17 = tail call double @llvm.fabs.f64(double %16)
  store double %17, ptr %3, align 8, !tbaa !38
  %18 = getelementptr inbounds nuw i8, ptr %0, i64 216
  %19 = load double, ptr %18, align 8, !tbaa !47
  %20 = fcmp une double %19, 0.000000e+00
  br i1 %20, label %21, label %84

21:                                               ; preds = %1
  br i1 %9, label %22, label %54

22:                                               ; preds = %21
  %23 = fadd double %17, 0xBFF921FB54442D18
  %24 = tail call double @llvm.fabs.f64(double %23)
  %25 = fcmp olt double %24, 1.000000e-10
  br i1 %25, label %26, label %40

26:                                               ; preds = %22
  %27 = getelementptr inbounds nuw i8, ptr %0, i64 488
  %28 = load double, ptr %27, align 8, !tbaa !48
  %29 = fmul double %28, 2.000000e+00
  %30 = getelementptr inbounds nuw i8, ptr %0, i64 208
  %31 = load double, ptr %30, align 8, !tbaa !49
  %32 = fadd double %31, 1.000000e+00
  %33 = tail call double @pow(double noundef %32, double noundef %32) #8, !tbaa !50
  %34 = fsub double 1.000000e+00, %31
  %35 = tail call double @pow(double noundef %34, double noundef %34) #8, !tbaa !50
  %36 = fmul double %33, %35
  %37 = tail call double @sqrt(double noundef %36) #8, !tbaa !50
  %38 = fdiv double %29, %37
  %39 = getelementptr inbounds nuw i8, ptr %3, i64 24
  store double %38, ptr %39, align 8, !tbaa !51
  br label %109

40:                                               ; preds = %22
  %41 = tail call double @sin(double noundef %17) #8, !tbaa !50
  %42 = tail call double @cos(double %16)
  %43 = getelementptr inbounds nuw i8, ptr %0, i64 208
  %44 = load double, ptr %43, align 8, !tbaa !49
  %45 = tail call noundef double @_Z7pj_tsfnddd(double noundef %17, double noundef %41, double noundef %44)
  %46 = fdiv double %42, %45
  %47 = getelementptr inbounds nuw i8, ptr %3, i64 24
  %48 = load double, ptr %43, align 8, !tbaa !49
  %49 = fmul double %41, %48
  %50 = fneg double %49
  %51 = tail call double @llvm.fmuladd.f64(double %50, double %49, double 1.000000e+00)
  %52 = tail call double @sqrt(double noundef %51) #8, !tbaa !50
  %53 = fdiv double %46, %52
  store double %53, ptr %47, align 8, !tbaa !51
  br label %109

54:                                               ; preds = %21
  %55 = tail call double @sin(double noundef %5) #8, !tbaa !50
  %56 = getelementptr inbounds nuw i8, ptr %0, i64 208
  %57 = load double, ptr %56, align 8, !tbaa !49
  %58 = fmul double %55, %57
  %59 = fadd double %5, 0x3FF921FB54442D18
  %60 = fmul double %59, 5.000000e-01
  %61 = tail call double @tan(double noundef %60) #8, !tbaa !50
  %62 = fsub double 1.000000e+00, %58
  %63 = fadd double %58, 1.000000e+00
  %64 = fdiv double %62, %63
  %65 = fmul double %57, 5.000000e-01
  %66 = tail call double @pow(double noundef %64, double noundef %65) #8, !tbaa !50
  %67 = fmul double %61, %66
  %68 = tail call double @atan(double noundef %67) #8, !tbaa !50
  %69 = tail call double @llvm.fmuladd.f64(double %68, double 2.000000e+00, double 0xBFF921FB54442D18)
  %70 = getelementptr inbounds nuw i8, ptr %0, i64 488
  %71 = load double, ptr %70, align 8, !tbaa !48
  %72 = fmul double %71, 2.000000e+00
  %73 = tail call double @cos(double noundef %5) #8, !tbaa !50
  %74 = fmul double %72, %73
  %75 = fneg double %58
  %76 = tail call double @llvm.fmuladd.f64(double %75, double %58, double 1.000000e+00)
  %77 = tail call double @sqrt(double noundef %76) #8, !tbaa !50
  %78 = fdiv double %74, %77
  %79 = getelementptr inbounds nuw i8, ptr %3, i64 24
  store double %78, ptr %79, align 8, !tbaa !51
  %80 = tail call double @sin(double noundef %69) #8, !tbaa !50
  %81 = getelementptr inbounds nuw i8, ptr %3, i64 8
  store double %80, ptr %81, align 8, !tbaa !52
  %82 = tail call double @cos(double noundef %69) #8, !tbaa !50
  %83 = getelementptr inbounds nuw i8, ptr %3, i64 16
  store double %82, ptr %83, align 8, !tbaa !53
  br label %109

default.unreachable:                              ; preds = %84
  unreachable

84:                                               ; preds = %1
  switch i32 %14, label %default.unreachable [
    i32 2, label %85
    i32 3, label %90
    i32 0, label %94
    i32 1, label %94
  ]

85:                                               ; preds = %84
  %86 = tail call double @sin(double noundef %5) #8, !tbaa !50
  %87 = getelementptr inbounds nuw i8, ptr %3, i64 8
  store double %86, ptr %87, align 8, !tbaa !52
  %88 = tail call double @cos(double noundef %5) #8, !tbaa !50
  %89 = getelementptr inbounds nuw i8, ptr %3, i64 16
  store double %88, ptr %89, align 8, !tbaa !53
  br label %90

90:                                               ; preds = %85, %84
  %91 = getelementptr inbounds nuw i8, ptr %0, i64 488
  %92 = load double, ptr %91, align 8, !tbaa !48
  %93 = fmul double %92, 2.000000e+00
  br label %107

94:                                               ; preds = %84, %84
  %95 = fadd double %17, 0xBFF921FB54442D18
  %96 = tail call double @llvm.fabs.f64(double %95)
  %97 = fcmp ult double %96, 1.000000e-10
  br i1 %97, label %103, label %98

98:                                               ; preds = %94
  %99 = tail call double @cos(double %16)
  %100 = tail call double @llvm.fmuladd.f64(double %17, double -5.000000e-01, double 0x3FE921FB54442D18)
  %101 = tail call double @tan(double noundef %100) #8, !tbaa !50
  %102 = fdiv double %99, %101
  br label %107

103:                                              ; preds = %94
  %104 = getelementptr inbounds nuw i8, ptr %0, i64 488
  %105 = load double, ptr %104, align 8, !tbaa !48
  %106 = fmul double %105, 2.000000e+00
  br label %107

107:                                              ; preds = %98, %103, %90
  %.sink = phi double [ %93, %90 ], [ %102, %98 ], [ %106, %103 ]
  %108 = getelementptr inbounds nuw i8, ptr %3, i64 24
  store double %.sink, ptr %108, align 8, !tbaa !51
  br label %109

109:                                              ; preds = %54, %40, %26, %107
  %_ZL15stere_s_inverse5PJ_XYP8PJconsts.sink = phi ptr [ @_ZL15stere_s_inverse5PJ_XYP8PJconsts, %107 ], [ @_ZL15stere_e_inverse5PJ_XYP8PJconsts, %26 ], [ @_ZL15stere_e_inverse5PJ_XYP8PJconsts, %40 ], [ @_ZL15stere_e_inverse5PJ_XYP8PJconsts, %54 ]
  %_ZL15stere_s_forward5PJ_LPP8PJconsts.sink = phi ptr [ @_ZL15stere_s_forward5PJ_LPP8PJconsts, %107 ], [ @_ZL15stere_e_forward5PJ_LPP8PJconsts, %26 ], [ @_ZL15stere_e_forward5PJ_LPP8PJconsts, %40 ], [ @_ZL15stere_e_forward5PJ_LPP8PJconsts, %54 ]
  %110 = getelementptr inbounds nuw i8, ptr %0, i64 112
  store ptr %_ZL15stere_s_inverse5PJ_XYP8PJconsts.sink, ptr %110, align 8, !tbaa !54
  %111 = getelementptr inbounds nuw i8, ptr %0, i64 104
  store ptr %_ZL15stere_s_forward5PJ_LPP8PJconsts.sink, ptr %111, align 8, !tbaa !55
  ret ptr %0
}